; Function Attrs: nounwind uwtable
define internal void @DISKAUDIO_CloseDevice(ptr noundef captures(none) %0) #1 {
  %2 = getelementptr inbounds nuw i8, ptr %0, i64 200
  %3 = load ptr, ptr %2, align 8
  %.not = icmp eq ptr %3, null
  br i1 %.not, label %13, label %4

4:                                                ; preds = %1
  %5 = load ptr, ptr %3, align 8
  %.not7 = icmp eq ptr %5, null
  br i1 %.not7, label %8, label %6

6:                                                ; preds = %4
  %7 = tail call zeroext i1 @SDL_CloseIO_REAL(ptr noundef nonnull %5) #7
  %.pre = load ptr, ptr %2, align 8
  br label %8

8:                                                ; preds = %6, %4
  %9 = phi ptr [ %.pre, %6 ], [ %3, %4 ]
  %10 = getelementptr inbounds nuw i8, ptr %9, i64 16
  %11 = load ptr, ptr %10, align 8
  tail call void @SDL_free_REAL(ptr noundef %11) #7
  %12 = load ptr, ptr %2, align 8
  tail call void @SDL_free_REAL(ptr noundef %12) #7
  store ptr null, ptr %2, align 8
  br label %13

13:                                               ; preds = %8, %1
  ret void
}